; Function Attrs: mustprogress uwtable
define hidden noundef zeroext i1 @_Z11pyopencv_toIlEbP7_objectRT_RK7ArgInfo(ptr noundef %0, ptr nocapture noundef nonnull writeonly align 8 dereferenceable(8) %1, ptr nocapture noundef nonnull readonly align 8 dereferenceable(12) %2) local_unnamed_addr #3 personality ptr @__gxx_personality_v0 {
  %4 = icmp eq ptr %0, null
  %5 = icmp eq ptr %0, @_Py_NoneStruct
  %or.cond = or i1 %4, %5
  br i1 %or.cond, label %35, label %6

6:                                                ; preds = %3
  %7 = load ptr, ptr @opencv_ARRAY_API, align 8
  %8 = getelementptr inbounds i8, ptr %7, i64 64
  %9 = load ptr, ptr %8, align 8
  %10 = getelementptr i8, ptr %0, i64 8
  %.val2.i = load ptr, ptr %10, align 8
  %.not.i.i = icmp eq ptr %.val2.i, %9
  br i1 %.not.i.i, label %_Z6isBoolP7_object.exit.thread, label %11

11:                                               ; preds = %6
  %12 = invoke i32 @PyType_IsSubtype(ptr noundef %.val2.i, ptr noundef %9)
          to label %_ZL19_PyObject_TypeCheckP7_objectP11_typeobject.exit.i unwind label %13

_ZL19_PyObject_TypeCheckP7_objectP11_typeobject.exit.i: ; preds = %11
  %.not4.i = icmp eq i32 %12, 0
  br i1 %.not4.i, label %_Z6isBoolP7_object.exit, label %_Z6isBoolP7_object.exit.thread

13:                                               ; preds = %11
  %14 = landingpad { ptr, i32 }
          catch ptr null
  %15 = extractvalue { ptr, i32 } %14, 0
  tail call void @__clang_call_terminate(ptr %15) #13
  unreachable

_Z6isBoolP7_object.exit:                          ; preds = %_ZL19_PyObject_TypeCheckP7_objectP11_typeobject.exit.i
  %.val.i = load ptr, ptr %10, align 8
  %16 = icmp eq ptr %.val.i, @PyBool_Type
  br i1 %16, label %_Z6isBoolP7_object.exit.thread, label %19

_Z6isBoolP7_object.exit.thread:                   ; preds = %6, %_ZL19_PyObject_TypeCheckP7_objectP11_typeobject.exit.i, %_Z6isBoolP7_object.exit
  %17 = load ptr, ptr %2, align 8
  %18 = tail call noundef i32 (ptr, ...) @_Z7failmsgPKcz(ptr noundef nonnull @.str.18, ptr noundef %17)
  br label %35

19:                                               ; preds = %_Z6isBoolP7_object.exit
  %20 = getelementptr i8, ptr %.val.i, i64 168
  %.val = load i64, ptr %20, align 8
  %21 = and i64 %.val, 16777216
  %.not = icmp eq i64 %21, 0
  br i1 %.not, label %22, label %_ZL19_PyObject_TypeCheckP7_objectP11_typeobject.exit.thread

22:                                               ; preds = %19
  %23 = load ptr, ptr @opencv_ARRAY_API, align 8
  %24 = getelementptr inbounds i8, ptr %23, i64 96
  %25 = load ptr, ptr %24, align 8
  %.not.i = icmp eq ptr %.val.i, %25
  br i1 %.not.i, label %_ZL19_PyObject_TypeCheckP7_objectP11_typeobject.exit.thread, label %_ZL19_PyObject_TypeCheckP7_objectP11_typeobject.exit

_ZL19_PyObject_TypeCheckP7_objectP11_typeobject.exit: ; preds = %22
  %26 = tail call i32 @PyType_IsSubtype(ptr noundef nonnull %.val.i, ptr noundef %25)
  %.not16 = icmp eq i32 %26, 0
  br i1 %.not16, label %29, label %_ZL19_PyObject_TypeCheckP7_objectP11_typeobject.exit.thread

_ZL19_PyObject_TypeCheckP7_objectP11_typeobject.exit.thread: ; preds = %22, %_ZL19_PyObject_TypeCheckP7_objectP11_typeobject.exit, %19
  %27 = tail call i64 @PyLong_AsLongLong(ptr noundef nonnull %0)
  store i64 %27, ptr %1, align 8
  %28 = icmp eq i64 %27, -1
  br i1 %28, label %32, label %35

29:                                               ; preds = %_ZL19_PyObject_TypeCheckP7_objectP11_typeobject.exit
  %30 = load ptr, ptr %2, align 8
  %31 = tail call noundef i32 (ptr, ...) @_Z7failmsgPKcz(ptr noundef nonnull @.str.17, ptr noundef %30)
  br label %35

32:                                               ; preds = %_ZL19_PyObject_TypeCheckP7_objectP11_typeobject.exit.thread
  %33 = tail call ptr @PyErr_Occurred()
  %34 = icmp eq ptr %33, null
  br label %35

35:                                               ; preds = %_ZL19_PyObject_TypeCheckP7_objectP11_typeobject.exit.thread, %32, %3, %29, %_Z6isBoolP7_object.exit.thread
  %.0 = phi i1 [ false, %_Z6isBoolP7_object.exit.thread ], [ false, %29 ], [ true, %3 ], [ true, %_ZL19_PyObject_TypeCheckP7_objectP11_typeobject.exit.thread ], [ %34, %32 ]
  ret i1 %.0
}